target datalayout = "e-m:e-p270:32:32-p271:32:32-p272:64:64-i64:64-i128:128-f80:128-n8:16:32:64-S128"
target triple = "x86_64-pc-linux-gnu"

@.str.3 = private unnamed_addr constant [2 x i8] c"\0A\00", align 1
@.str.4 = private unnamed_addr constant [16 x i8] c"    log string\0A\00", align 1
@.str.5 = private unnamed_addr constant [82 x i8] c"Print the given string to the screen and/or the log file. This is useful for TCL\0A\00", align 1
@.str.6 = private unnamed_addr constant [72 x i8] c"scripts, because the TCL command \22puts\22 only goes to stdout but not to\0A\00", align 1
@.str.7 = private unnamed_addr constant [11 x i8] c"logfiles.\0A\00", align 1
@.str.8 = private unnamed_addr constant [13 x i8] c"    -stdout\0A\00", align 1
@.str.9 = private unnamed_addr constant [74 x i8] c"        Print the output to stdout too. This is useful when all Yosys is\0A\00", align 1
@.str.10 = private unnamed_addr constant [80 x i8] c"        executed with a script and the -q (quiet operation) argument to notify\0A\00", align 1
@.str.11 = private unnamed_addr constant [19 x i8] c"        the user.\0A\00", align 1
@.str.12 = private unnamed_addr constant [13 x i8] c"    -stderr\0A\00", align 1
@.str.13 = private unnamed_addr constant [41 x i8] c"        Print the output to stderr too.\0A\00", align 1
@.str.14 = private unnamed_addr constant [12 x i8] c"    -nolog\0A\00", align 1
@.str.15 = private unnamed_addr constant [78 x i8] c"        Don't use the internal log() command. Use either -stdout or -stderr,\0A\00", align 1
@.str.16 = private unnamed_addr constant [55 x i8] c"        otherwise no output will be generated at all.\0A\00", align 1
@.str.17 = private unnamed_addr constant [8 x i8] c"    -n\0A\00", align 1
@.str.18 = private unnamed_addr constant [33 x i8] c"        do not append a newline\0A\00", align 1

; Function Attrs: mustprogress uwtable
define internal void @_ZN12_GLOBAL__N_17LogPass4helpEv(ptr noundef nonnull align 8 dereferenceable(104) %0) unnamed_addr #4 align 2 {
  %2 = alloca ptr, align 8
  store ptr %0, ptr %2, align 8
  call void (ptr, ...) @_ZN5Yosys3logEPKcz(ptr noundef @.str.3)
  call void (ptr, ...) @_ZN5Yosys3logEPKcz(ptr noundef @.str.4)
  call void (ptr, ...) @_ZN5Yosys3logEPKcz(ptr noundef @.str.3)
  call void (ptr, ...) @_ZN5Yosys3logEPKcz(ptr noundef @.str.5)
  call void (ptr, ...) @_ZN5Yosys3logEPKcz(ptr noundef @.str.6)
  call void (ptr, ...) @_ZN5Yosys3logEPKcz(ptr noundef @.str.7)
  call void (ptr, ...) @_ZN5Yosys3logEPKcz(ptr noundef @.str.3)
  call void (ptr, ...) @_ZN5Yosys3logEPKcz(ptr noundef @.str.8)
  call void (ptr, ...) @_ZN5Yosys3logEPKcz(ptr noundef @.str.9)
  call void (ptr, ...) @_ZN5Yosys3logEPKcz(ptr noundef @.str.10)
  call void (ptr, ...) @_ZN5Yosys3logEPKcz(ptr noundef @.str.11)
  call void (ptr, ...) @_ZN5Yosys3logEPKcz(ptr noundef @.str.3)
  call void (ptr, ...) @_ZN5Yosys3logEPKcz(ptr noundef @.str.12)
  call void (ptr, ...) @_ZN5Yosys3logEPKcz(ptr noundef @.str.13)
  call void (ptr, ...) @_ZN5Yosys3logEPKcz(ptr noundef @.str.3)
  call void (ptr, ...) @_ZN5Yosys3logEPKcz(ptr noundef @.str.14)
  call void (ptr, ...) @_ZN5Yosys3logEPKcz(ptr noundef @.str.15)
  call void (ptr, ...) @_ZN5Yosys3logEPKcz(ptr noundef @.str.16)
  call void (ptr, ...) @_ZN5Yosys3logEPKcz(ptr noundef @.str.3)
  call void (ptr, ...) @_ZN5Yosys3logEPKcz(ptr noundef @.str.17)
  call void (ptr, ...) @_ZN5Yosys3logEPKcz(ptr noundef @.str.18)
  call void (ptr, ...) @_ZN5Yosys3logEPKcz(ptr noundef @.str.3)
  ret void
}